; Function Attrs: mustprogress nounwind uwtable
define hidden void @_ZN10ZStatCycle8at_startEv(ptr noundef nonnull align 8 dereferenceable(376) %0) local_unnamed_addr #0 align 2 {
_ZN7ZLockerI5ZLockED2Ev.exit:
  %1 = tail call i32 @pthread_mutex_lock(ptr noundef nonnull %0) #20
  %2 = tail call { i64, i64 } @_ZN29CompositeElapsedCounterSource3nowEv() #20
  %3 = extractvalue { i64, i64 } %2, 0
  %4 = extractvalue { i64, i64 } %2, 1
  %5 = getelementptr inbounds i8, ptr %0, i64 48
  store i64 %3, ptr %5, align 8
  %.sroa.2.0..sroa_idx = getelementptr inbounds i8, ptr %0, i64 56
  store i64 %4, ptr %.sroa.2.0..sroa_idx, align 8
  %6 = tail call i32 @pthread_mutex_unlock(ptr noundef nonnull %0) #20
  ret void
}